(ioptparse
Values
p0
(dp1
S'autoflatten'
p2
I01
sS'filetype'
p3
S'kicad_module'
p4
sS'ids'
p5
(lp6
S'path2205-5-6-2'
p7
asS'crop'
p8
I00
sS'debug'
p9
I00
sS'openkicad'
p10
I00
sS'openfactory'
p11
I00
sS'threshold'
p12
F128.0
sS'path'
p13
S'/home/dusjagr/Documents/8bit_Mixtape/MixtapeNEO-3000/KiCAD/8BitMixtapeNEO-3000.pretty'
p14
sS'dpi'
p15
F600.0
sb.